
Bootloader.elf:     file format elf32-avr

Sections:
Idx Name          Size      VMA       LMA       File off  Algn
  0 .data         00000000  00800200  00800200  000003f4  2**0
                  CONTENTS, ALLOC, LOAD, DATA
  1 .text         000003a0  0003e000  0003e000  00000054  2**1
                  CONTENTS, ALLOC, LOAD, READONLY, CODE
  2 .comment      00000030  00000000  00000000  000003f4  2**0
                  CONTENTS, READONLY
  3 .note.gnu.avr.deviceinfo 00000040  00000000  00000000  00000424  2**2
                  CONTENTS, READONLY
  4 .debug_aranges 00000100  00000000  00000000  00000464  2**0
                  CONTENTS, READONLY, DEBUGGING
  5 .debug_info   00001bf2  00000000  00000000  00000564  2**0
                  CONTENTS, READONLY, DEBUGGING
  6 .debug_abbrev 00000f41  00000000  00000000  00002156  2**0
                  CONTENTS, READONLY, DEBUGGING
  7 .debug_line   00000bfc  00000000  00000000  00003097  2**0
                  CONTENTS, READONLY, DEBUGGING
  8 .debug_frame  000003b0  00000000  00000000  00003c94  2**2
                  CONTENTS, READONLY, DEBUGGING
  9 .debug_str    000007ca  00000000  00000000  00004044  2**0
                  CONTENTS, READONLY, DEBUGGING
 10 .debug_loc    00000f24  00000000  00000000  0000480e  2**0
                  CONTENTS, READONLY, DEBUGGING
 11 .debug_ranges 00000100  00000000  00000000  00005732  2**0
                  CONTENTS, READONLY, DEBUGGING

Disassembly of section .text:

0003e000 <__vectors>:
   3e000:	71 c0       	rjmp	.+226    	; 0x3e0e4 <__ctors_end>
   3e002:	00 00       	nop
   3e004:	8e c0       	rjmp	.+284    	; 0x3e122 <__bad_interrupt>
   3e006:	00 00       	nop
   3e008:	8c c0       	rjmp	.+280    	; 0x3e122 <__bad_interrupt>
   3e00a:	00 00       	nop
   3e00c:	8a c0       	rjmp	.+276    	; 0x3e122 <__bad_interrupt>
   3e00e:	00 00       	nop
   3e010:	88 c0       	rjmp	.+272    	; 0x3e122 <__bad_interrupt>
   3e012:	00 00       	nop
   3e014:	86 c0       	rjmp	.+268    	; 0x3e122 <__bad_interrupt>
   3e016:	00 00       	nop
   3e018:	84 c0       	rjmp	.+264    	; 0x3e122 <__bad_interrupt>
   3e01a:	00 00       	nop
   3e01c:	82 c0       	rjmp	.+260    	; 0x3e122 <__bad_interrupt>
   3e01e:	00 00       	nop
   3e020:	80 c0       	rjmp	.+256    	; 0x3e122 <__bad_interrupt>
   3e022:	00 00       	nop
   3e024:	7e c0       	rjmp	.+252    	; 0x3e122 <__bad_interrupt>
   3e026:	00 00       	nop
   3e028:	7c c0       	rjmp	.+248    	; 0x3e122 <__bad_interrupt>
   3e02a:	00 00       	nop
   3e02c:	7a c0       	rjmp	.+244    	; 0x3e122 <__bad_interrupt>
   3e02e:	00 00       	nop
   3e030:	78 c0       	rjmp	.+240    	; 0x3e122 <__bad_interrupt>
   3e032:	00 00       	nop
   3e034:	76 c0       	rjmp	.+236    	; 0x3e122 <__bad_interrupt>
   3e036:	00 00       	nop
   3e038:	74 c0       	rjmp	.+232    	; 0x3e122 <__bad_interrupt>
   3e03a:	00 00       	nop
   3e03c:	72 c0       	rjmp	.+228    	; 0x3e122 <__bad_interrupt>
   3e03e:	00 00       	nop
   3e040:	70 c0       	rjmp	.+224    	; 0x3e122 <__bad_interrupt>
   3e042:	00 00       	nop
   3e044:	6e c0       	rjmp	.+220    	; 0x3e122 <__bad_interrupt>
   3e046:	00 00       	nop
   3e048:	6c c0       	rjmp	.+216    	; 0x3e122 <__bad_interrupt>
   3e04a:	00 00       	nop
   3e04c:	6a c0       	rjmp	.+212    	; 0x3e122 <__bad_interrupt>
   3e04e:	00 00       	nop
   3e050:	68 c0       	rjmp	.+208    	; 0x3e122 <__bad_interrupt>
   3e052:	00 00       	nop
   3e054:	66 c0       	rjmp	.+204    	; 0x3e122 <__bad_interrupt>
   3e056:	00 00       	nop
   3e058:	64 c0       	rjmp	.+200    	; 0x3e122 <__bad_interrupt>
   3e05a:	00 00       	nop
   3e05c:	62 c0       	rjmp	.+196    	; 0x3e122 <__bad_interrupt>
   3e05e:	00 00       	nop
   3e060:	60 c0       	rjmp	.+192    	; 0x3e122 <__bad_interrupt>
   3e062:	00 00       	nop
   3e064:	5e c0       	rjmp	.+188    	; 0x3e122 <__bad_interrupt>
   3e066:	00 00       	nop
   3e068:	5c c0       	rjmp	.+184    	; 0x3e122 <__bad_interrupt>
   3e06a:	00 00       	nop
   3e06c:	5a c0       	rjmp	.+180    	; 0x3e122 <__bad_interrupt>
   3e06e:	00 00       	nop
   3e070:	58 c0       	rjmp	.+176    	; 0x3e122 <__bad_interrupt>
   3e072:	00 00       	nop
   3e074:	56 c0       	rjmp	.+172    	; 0x3e122 <__bad_interrupt>
   3e076:	00 00       	nop
   3e078:	54 c0       	rjmp	.+168    	; 0x3e122 <__bad_interrupt>
   3e07a:	00 00       	nop
   3e07c:	52 c0       	rjmp	.+164    	; 0x3e122 <__bad_interrupt>
   3e07e:	00 00       	nop
   3e080:	50 c0       	rjmp	.+160    	; 0x3e122 <__bad_interrupt>
   3e082:	00 00       	nop
   3e084:	4e c0       	rjmp	.+156    	; 0x3e122 <__bad_interrupt>
   3e086:	00 00       	nop
   3e088:	4c c0       	rjmp	.+152    	; 0x3e122 <__bad_interrupt>
   3e08a:	00 00       	nop
   3e08c:	4a c0       	rjmp	.+148    	; 0x3e122 <__bad_interrupt>
   3e08e:	00 00       	nop
   3e090:	48 c0       	rjmp	.+144    	; 0x3e122 <__bad_interrupt>
   3e092:	00 00       	nop
   3e094:	46 c0       	rjmp	.+140    	; 0x3e122 <__bad_interrupt>
   3e096:	00 00       	nop
   3e098:	44 c0       	rjmp	.+136    	; 0x3e122 <__bad_interrupt>
   3e09a:	00 00       	nop
   3e09c:	42 c0       	rjmp	.+132    	; 0x3e122 <__bad_interrupt>
   3e09e:	00 00       	nop
   3e0a0:	40 c0       	rjmp	.+128    	; 0x3e122 <__bad_interrupt>
   3e0a2:	00 00       	nop
   3e0a4:	3e c0       	rjmp	.+124    	; 0x3e122 <__bad_interrupt>
   3e0a6:	00 00       	nop
   3e0a8:	3c c0       	rjmp	.+120    	; 0x3e122 <__bad_interrupt>
   3e0aa:	00 00       	nop
   3e0ac:	3a c0       	rjmp	.+116    	; 0x3e122 <__bad_interrupt>
   3e0ae:	00 00       	nop
   3e0b0:	38 c0       	rjmp	.+112    	; 0x3e122 <__bad_interrupt>
   3e0b2:	00 00       	nop
   3e0b4:	36 c0       	rjmp	.+108    	; 0x3e122 <__bad_interrupt>
   3e0b6:	00 00       	nop
   3e0b8:	34 c0       	rjmp	.+104    	; 0x3e122 <__bad_interrupt>
   3e0ba:	00 00       	nop
   3e0bc:	32 c0       	rjmp	.+100    	; 0x3e122 <__bad_interrupt>
   3e0be:	00 00       	nop
   3e0c0:	30 c0       	rjmp	.+96     	; 0x3e122 <__bad_interrupt>
   3e0c2:	00 00       	nop
   3e0c4:	2e c0       	rjmp	.+92     	; 0x3e122 <__bad_interrupt>
   3e0c6:	00 00       	nop
   3e0c8:	2c c0       	rjmp	.+88     	; 0x3e122 <__bad_interrupt>
   3e0ca:	00 00       	nop
   3e0cc:	2a c0       	rjmp	.+84     	; 0x3e122 <__bad_interrupt>
   3e0ce:	00 00       	nop
   3e0d0:	28 c0       	rjmp	.+80     	; 0x3e122 <__bad_interrupt>
   3e0d2:	00 00       	nop
   3e0d4:	26 c0       	rjmp	.+76     	; 0x3e122 <__bad_interrupt>
   3e0d6:	00 00       	nop
   3e0d8:	24 c0       	rjmp	.+72     	; 0x3e122 <__bad_interrupt>
   3e0da:	00 00       	nop
   3e0dc:	22 c0       	rjmp	.+68     	; 0x3e122 <__bad_interrupt>
   3e0de:	00 00       	nop
   3e0e0:	20 c0       	rjmp	.+64     	; 0x3e122 <__bad_interrupt>
	...

0003e0e4 <__ctors_end>:
   3e0e4:	11 24       	eor	r1, r1
   3e0e6:	1f be       	out	0x3f, r1	; 63
   3e0e8:	cf ef       	ldi	r28, 0xFF	; 255
   3e0ea:	d1 e2       	ldi	r29, 0x21	; 33
   3e0ec:	de bf       	out	0x3e, r29	; 62
   3e0ee:	cd bf       	out	0x3d, r28	; 61
   3e0f0:	01 e0       	ldi	r16, 0x01	; 1
   3e0f2:	0c bf       	out	0x3c, r16	; 60

0003e0f4 <__do_copy_data>:
   3e0f4:	12 e0       	ldi	r17, 0x02	; 2
   3e0f6:	a0 e0       	ldi	r26, 0x00	; 0
   3e0f8:	b2 e0       	ldi	r27, 0x02	; 2
   3e0fa:	e0 ea       	ldi	r30, 0xA0	; 160
   3e0fc:	f3 ee       	ldi	r31, 0xE3	; 227
   3e0fe:	03 e0       	ldi	r16, 0x03	; 3
   3e100:	0b bf       	out	0x3b, r16	; 59
   3e102:	02 c0       	rjmp	.+4      	; 0x3e108 <__do_copy_data+0x14>
   3e104:	07 90       	elpm	r0, Z+
   3e106:	0d 92       	st	X+, r0
   3e108:	a0 30       	cpi	r26, 0x00	; 0
   3e10a:	b1 07       	cpc	r27, r17
   3e10c:	d9 f7       	brne	.-10     	; 0x3e104 <__do_copy_data+0x10>

0003e10e <__do_clear_bss>:
   3e10e:	22 e0       	ldi	r18, 0x02	; 2
   3e110:	a0 e0       	ldi	r26, 0x00	; 0
   3e112:	b2 e0       	ldi	r27, 0x02	; 2
   3e114:	01 c0       	rjmp	.+2      	; 0x3e118 <.do_clear_bss_start>

0003e116 <.do_clear_bss_loop>:
   3e116:	1d 92       	st	X+, r1

0003e118 <.do_clear_bss_start>:
   3e118:	a0 30       	cpi	r26, 0x00	; 0
   3e11a:	b2 07       	cpc	r27, r18
   3e11c:	e1 f7       	brne	.-8      	; 0x3e116 <.do_clear_bss_loop>
   3e11e:	97 d0       	rcall	.+302    	; 0x3e24e <main>
   3e120:	3d c1       	rjmp	.+634    	; 0x3e39c <_exit>

0003e122 <__bad_interrupt>:
   3e122:	6e cf       	rjmp	.-292    	; 0x3e000 <__vectors>

0003e124 <write_flash>:
	0x0c, 0x94, 0x17, 0x01, 0x0c, 0x94, 0x2b, 0x01, 0x0c, 0x94, 0x2b, 0x01, 0x0c, 0x94, 0x2b, 0x01, 0x0c, 0x94, 0x2b, 0x01, 0x0c, 0x94, 0x2b, 0x01, 0x0c, 0x94, 0x2b, 0x01, 0x0c, 0x94, 0x2b, 0x01, 0x0c, 0x94, 0x2b, 0x01, 0x0c, 0x94, 0x2b, 0x01, 0x0c, 0x94, 0x2b, 0x01, 0x0c, 0x94, 0x2b, 0x01, 0x0c, 0x94, 0x2b, 0x01, 0x0c, 0x94, 0x2b, 0x01, 0x0c, 0x94, 0x2b, 0x01, 0x0c, 0x94, 0x2b, 0x01, 0x0c, 0x94, 0x2b, 0x01, 0x0c, 0x94, 0x2b, 0x01, 0x0c, 0x94, 0x2b, 0x01, 0x0c, 0x94, 0x2b, 0x01, 0x0c, 0x94, 0x2b, 0x01, 0x0c, 0x94, 0x2b, 0x01, 0x0c, 0x94, 0x2b, 0x01, 0x0c, 0x94, 0x10, 0x02, 0x0c, 0x94, 0x2b, 0x01, 0x0c, 0x94, 0x2b, 0x01, 0x0c, 0x94, 0x2b, 0x01, 0x0c, 0x94, 0x2b, 0x01, 0x0c, 0x94, 0x2b, 0x01, 0x0c, 0x94, 0x2b, 0x01, 0x0c, 0x94, 0x2b, 0x01, 0x0c, 0x94, 0x2b, 0x01, 0x0c, 0x94, 0x2b, 0x01, 0x0c, 0x94, 0x2b, 0x01, 0x0c, 0x94, 0x2b, 0x01, 0x0c, 0x94, 0x2b, 0x01, 0x0c, 0x94, 0x2b, 0x01, 0x0c, 0x94, 0x2b, 0x01, 0x0c, 0x94, 0x2b, 0x01, 0x0c, 0x94, 0x2b, 0x01, 0x0c, 0x94, 0x2b, 0x01, 0x0c, 0x94, 0x2b, 0x01, 0x0c, 0x94, 0x2b, 0x01, 0x0c, 0x94, 0x2b, 0x01, 0x0c, 0x94, 0x2b, 0x01, 0x0c, 0x94, 0x2b, 0x01, 0x0c, 0x94, 0x2b, 0x01, 0x0c, 0x94, 0x2b, 0x01, 0x0c, 0x94, 0x2b, 0x01, 0x0c, 0x94, 0x2b, 0x01, 0x0c, 0x94, 0x2b, 0x01, 0x0c, 0x94, 0x2b, 0x01, 0x0c, 0x94, 0x2b, 0x01, 0x0c, 0x94, 0x2b, 0x01, 0x0c, 0x94, 0x2b, 0x01, 0x0c, 0x94, 0x2b, 0x01, 0x0c, 0x94, 0x2b, 0x01, 0x0c, 0x94, 0x85, 0x01, 0x0c, 0x94, 0xaf, 0x01, 0x0c, 0x94, 0xab, 0x01, 0x0c, 0x94, 0x5e, 0x01, 0x0c, 0x94, 0x74, 0x01, 0x0c, 0x94, 0x59, 0x01, 0x0c, 0x94, 0x97, 0x01, 0x0c, 0x94, 0xa1, 0x01, 0x0c, 0x94, 0x7f, 0x01, 0x0c, 0x94, 0x78, 0x01, 0x0c, 0x94, 0x8f, 0x01, 0x0c, 0x94, 0x7c, 0x01, 0x0c, 0x94, 0x89, 0x01, 0x0c, 0x94, 0x70, 0x01, 0x0c, 0x94, 0x93, 0x01, 0x0c, 0x94, 0xa5, 0x01, 0x0c, 0x94, 0x9d, 0x01, 0x00, 0x00, 0x21, 0x00, 0x24, 0x00, 0x27, 0x00, 0x2a, 0x00, 0x2d, 0x00, 0x30, 0x00, 0x33, 0x00, 0x01, 0x01, 0x00, 0x00, 0x04, 0x01, 0x07, 0x01, 0x0a, 0x01, 0x00, 0x00, 0x22, 0x00, 0x25, 0x00, 0x28, 0x00, 0x2b, 0x00, 0x2e, 0x00, 0x31, 0x00, 0x34, 0x00, 0x02, 0x01, 0x00, 0x00, 0x05, 0x01, 0x08, 0x01, 0x0b, 0x01, 0x05, 0x05, 0x05, 0x05, 0x07, 0x05, 0x08, 0x08, 0x08, 0x08, 0x02, 0x02, 0x02, 0x02, 0x0a, 0x0a, 0x08, 0x08, 0x04, 0x04, 0x04, 0x04, 0x01, 0x01, 0x01, 0x01, 0x01, 0x01, 0x01, 0x01, 0x03, 0x03, 0x03, 0x03, 0x03, 0x03, 0x03, 0x03, 0x04, 0x07, 0x07, 0x07, 0x0c, 0x0c, 0x0c, 0x0c, 0x0c, 0x0c, 0x0c, 0x0c, 0x02, 0x02, 0x02, 0x02, 0x06, 0x06, 0x06, 0x06, 0x06, 0x06, 0x06, 0x06, 0x0b, 0x0b, 0x0b, 0x0b, 0x0b, 0x0b, 0x0b, 0x0b, 0x01, 0x02, 0x10, 0x20, 0x20, 0x08, 0x08, 0x10, 0x20, 0x40, 0x10, 0x20, 0x40, 0x80, 0x02, 0x01, 0x02, 0x01, 0x08, 0x04, 0x02, 0x01, 0x01, 0x02, 0x04, 0x08, 0x10, 0x20, 0x40, 0x80, 0x80, 0x40, 0x20, 0x10, 0x08, 0x04, 0x02, 0x01, 0x80, 0x04, 0x02, 0x01, 0x80, 0x40, 0x20, 0x10, 0x08, 0x04, 0x02, 0x01, 0x08, 0x04, 0x02, 0x01, 0x01, 0x02, 0x04, 0x08, 0x10, 0x20, 0x40, 0x80, 0x01, 0x02, 0x04, 0x08, 0x10, 0x20, 0x40, 0x80, 0x00, 0x00, 0x0a, 0x0b, 0x02, 0x09, 0x0c, 0x0d, 0x0e, 0x08, 0x07, 0x03, 0x04, 0x01, 0x00, 0x00, 0x00, 0x00, 0x00, 0x00, 0x00, 0x00, 0x00, 0x00, 0x00, 0x00, 0x00, 0x00, 0x00, 0x00, 0x00, 0x00, 0x00, 0x00, 0x00, 0x00, 0x00, 0x00, 0x00, 0x00, 0x00, 0x00, 0x00, 0x00, 0x12, 0x11, 0x10, 0x00, 0x00, 0x00, 0x00, 0x00, 0x00, 0x00, 0x00, 0x00, 0x00, 0x00, 0x00, 0x00, 0x00, 0x00, 0x00, 0x00, 0x00, 0x00, 0x00, 0x00, 0x00, 0x00, 0x11, 0x24, 0x1f, 0xbe, 0xcf, 0xef, 0xd1, 0xe2, 0xde, 0xbf, 0xcd, 0xbf, 0x00, 0xe0, 0x0c, 0xbf, 0x22, 0xe0, 0xa0, 0xe0, 0xb2, 0xe0, 0x01, 0xc0, 0x1d, 0x92, 0xa9, 0x30, 0xb2, 0x07, 0xe1, 0xf7, 0x0e, 0x94, 0x5a, 0x02, 0x0c, 0x94, 0xfe, 0x02, 0x0c, 0x94, 0x00, 0x00, 0x38, 0x2f, 0xe5, 0xef, 0xf1, 0xe0, 0x84, 0x91, 0xef, 0xea, 0xf1, 0xe0, 0x24, 0x91, 0xe9, 0xe6, 0xf1, 0xe0, 0x94, 0x91, 0x99, 0x23, 0x09, 0xf4, 0x35, 0xc0, 0x88, 0x23, 0x11, 0xf1, 0x81, 0x50, 0x82, 0x31, 0xf8, 0xf4, 0xe8, 0x2f, 0xf0, 0xe0, 0x88, 0x27, 0xe9, 0x5b, 0xfe, 0x4f, 0x8f, 0x4f, 0x0c, 0x94, 0xf6, 0x02, 0x78, 0x01, 0x7c, 0x01, 0x59, 0x01, 0x70, 0x01, 0x74, 0x01, 0x5e, 0x01, 0x7f, 0x01, 0x85, 0x01, 0x89, 0x01, 0x8f, 0x01, 0x93, 0x01, 0x97, 0x01, 0x9d, 0x01, 0xa1, 0x01, 0x5e, 0x01, 0xa5, 0x01, 0xab, 0x01, 0xaf, 0x01, 0x80, 0x91, 0x80, 0x00, 0x8f, 0x77, 0x80, 0x93, 0x80, 0x00, 0xe9, 0x2f, 0xf0, 0xe0, 0xee, 0x0f, 0xff, 0x1f, 0xee, 0x5b, 0xfe, 0x4f, 0xa5, 0x91, 0xb4, 0x91, 0x8f, 0xb7, 0xf8, 0x94, 0xec, 0x91, 0x31, 0x11, 0x48, 0xc0, 0x20, 0x95, 0x2e, 0x23, 0x2c, 0x93, 0x8f, 0xbf, 0x08, 0x95, 0x80, 0x91, 0x80, 0x00, 0x8f, 0x7d, 0xe8, 0xcf, 0x80, 0x91, 0x80, 0x00, 0x87, 0x7f, 0xe4, 0xcf, 0x84, 0xb5, 0x8f, 0x77, 0x84, 0xbd, 0xe2, 0xcf, 0x84, 0xb5, 0x8f, 0x7d, 0xfb, 0xcf, 0x80, 0x91, 0xb0, 0x00, 0x8f, 0x77, 0x80, 0x93, 0xb0, 0x00, 0xd9, 0xcf, 0x80, 0x91, 0xb0, 0x00, 0x8f, 0x7d, 0xf9, 0xcf, 0x80, 0x91, 0x90, 0x00, 0x8f, 0x77, 0x80, 0x93, 0x90, 0x00, 0xcf, 0xcf, 0x80, 0x91, 0x90, 0x00, 0x8f, 0x7d, 0xf9, 0xcf, 0x80, 0x91, 0x90, 0x00, 0x87, 0x7f, 0xf5, 0xcf, 0x80, 0x91, 0xa0, 0x00, 0x8f, 0x77, 0x80, 0x93, 0xa0, 0x00, 0xc1, 0xcf, 0x80, 0x91, 0xa0, 0x00, 0x8f, 0x7d, 0xf9, 0xcf, 0x80, 0x91, 0xa0, 0x00, 0x87, 0x7f, 0xf5, 0xcf, 0x80, 0x91, 0x20, 0x01, 0x8f, 0x77, 0x80, 0x93, 0x20, 0x01, 0xb3, 0xcf, 0x80, 0x91, 0x20, 0x01, 0x8f, 0x7d, 0xf9, 0xcf, 0x80, 0x91, 0x20, 0x01, 0x87, 0x7f, 0xf5, 0xcf, 0x2e, 0x2b, 0xb8, 0xcf, 0x3f, 0xb7, 0xf8, 0x94, 0x80, 0x91, 0x05, 0x02, 0x90, 0x91, 0x06, 0x02, 0xa0, 0x91, 0x07, 0x02, 0xb0, 0x91, 0x08, 0x02, 0x26, 0xb5, 0xa8, 0x9b, 0x05, 0xc0, 0x2f, 0x3f, 0x19, 0xf0, 0x01, 0x96, 0xa1, 0x1d, 0xb1, 0x1d, 0x3f, 0xbf, 0xba, 0x2f, 0xa9, 0x2f, 0x98, 0x2f, 0x88, 0x27, 0xbc, 0x01, 0xcd, 0x01, 0x62, 0x0f, 0x71, 0x1d, 0x81, 0x1d, 0x91, 0x1d, 0x42, 0xe0, 0x66, 0x0f, 0x77, 0x1f, 0x88, 0x1f, 0x99, 0x1f, 0x4a, 0x95, 0xd1, 0xf7, 0x08, 0x95, 0x8f, 0x92, 0x9f, 0x92, 0xaf, 0x92, 0xbf, 0x92, 0xcf, 0x92, 0xdf, 0x92, 0xef, 0x92, 0xff, 0x92, 0x0e, 0x94, 0xb5, 0x01, 0x4b, 0x01, 0x5c, 0x01, 0x84, 0xef, 0xc8, 0x2e, 0xdd, 0x24, 0xd3, 0x94, 0xe1, 0x2c, 0xf1, 0x2c, 0x0e, 0x94, 0xb5, 0x01, 0x68, 0x19, 0x79, 0x09, 0x8a, 0x09, 0x9b, 0x09, 0x68, 0x3e, 0x73, 0x40, 0x81, 0x05, 0x91, 0x05, 0xa8, 0xf3, 0x21, 0xe0, 0xc2, 0x1a, 0xd1, 0x08, 0xe1, 0x08, 0xf1, 0x08, 0x88, 0xee, 0x88, 0x0e, 0x83, 0xe0, 0x98, 0x1e, 0xa1, 0x1c, 0xb1, 0x1c, 0xc1, 0x14, 0xd1, 0x04, 0xe1, 0x04, 0xf1, 0x04, 0x29, 0xf7, 0xff, 0x90, 0xef, 0x90, 0xdf, 0x90, 0xcf, 0x90, 0xbf, 0x90, 0xaf, 0x90, 0x9f, 0x90, 0x8f, 0x90, 0x08, 0x95, 0x1f, 0x92, 0x0f, 0x92, 0x0f, 0xb6, 0x0f, 0x92, 0x11, 0x24, 0x2f, 0x93, 0x3f, 0x93, 0x8f, 0x93, 0x9f, 0x93, 0xaf, 0x93, 0xbf, 0x93, 0x80, 0x91, 0x01, 0x02, 0x90, 0x91, 0x02, 0x02, 0xa0, 0x91, 0x03, 0x02, 0xb0, 0x91, 0x04, 0x02, 0x30, 0x91, 0x00, 0x02, 0x23, 0xe0, 0x23, 0x0f, 0x2d, 0x37, 0x58, 0xf5, 0x01, 0x96, 0xa1, 0x1d, 0xb1, 0x1d, 0x20, 0x93, 0x00, 0x02, 0x80, 0x93, 0x01, 0x02, 0x90, 0x93, 0x02, 0x02, 0xa0, 0x93, 0x03, 0x02, 0xb0, 0x93, 0x04, 0x02, 0x80, 0x91, 0x05, 0x02, 0x90, 0x91, 0x06, 0x02, 0xa0, 0x91, 0x07, 0x02, 0xb0, 0x91, 0x08, 0x02, 0x01, 0x96, 0xa1, 0x1d, 0xb1, 0x1d, 0x80, 0x93, 0x05, 0x02, 0x90, 0x93, 0x06, 0x02, 0xa0, 0x93, 0x07, 0x02, 0xb0, 0x93, 0x08, 0x02, 0xbf, 0x91, 0xaf, 0x91, 0x9f, 0x91, 0x8f, 0x91, 0x3f, 0x91, 0x2f, 0x91, 0x0f, 0x90, 0x0f, 0xbe, 0x0f, 0x90, 0x1f, 0x90, 0x18, 0x95, 0x26, 0xe8, 0x23, 0x0f, 0x02, 0x96, 0xa1, 0x1d, 0xb1, 0x1d, 0xd2, 0xcf, 0x78, 0x94, 0x84, 0xb5, 0x82, 0x60, 0x84, 0xbd, 0x84, 0xb5, 0x81, 0x60, 0x84, 0xbd, 0x85, 0xb5, 0x82, 0x60, 0x85, 0xbd, 0x85, 0xb5, 0x81, 0x60, 0x85, 0xbd, 0x80, 0x91, 0x6e, 0x00, 0x81, 0x60, 0x80, 0x93, 0x6e, 0x00, 0x10, 0x92, 0x81, 0x00, 0x80, 0x91, 0x81, 0x00, 0x82, 0x60, 0x80, 0x93, 0x81, 0x00, 0x80, 0x91, 0x81, 0x00, 0x81, 0x60, 0x80, 0x93, 0x81, 0x00, 0x80, 0x91, 0x80, 0x00, 0x81, 0x60, 0x80, 0x93, 0x80, 0x00, 0x80, 0x91, 0xb1, 0x00, 0x84, 0x60, 0x80, 0x93, 0xb1, 0x00, 0x80, 0x91, 0xb0, 0x00, 0x81, 0x60, 0x80, 0x93, 0xb0, 0x00, 0x80, 0x91, 0x91, 0x00, 0x82, 0x60, 0x80, 0x93, 0x91, 0x00, 0x80, 0x91, 0x91, 0x00, 0x81, 0x60, 0x80, 0x93, 0x91, 0x00, 0x80, 0x91, 0x90, 0x00, 0x81, 0x60, 0x80, 0x93, 0x90, 0x00, 0x80, 0x91, 0xa1, 0x00, 0x82, 0x60, 0x80, 0x93, 0xa1, 0x00, 0x80, 0x91, 0xa1, 0x00, 0x81, 0x60, 0x80, 0x93, 0xa1, 0x00, 0x80, 0x91, 0xa0, 0x00, 0x81, 0x60, 0x80, 0x93, 0xa0, 0x00, 0x80, 0x91, 0x21, 0x01, 0x82, 0x60, 0x80, 0x93, 0x21, 0x01, 0x80, 0x91, 0x21, 0x01, 0x81, 0x60, 0x80, 0x93, 0x21, 0x01, 0x80, 0x91, 0x20, 0x01, 0x81, 0x60, 0x80, 0x93, 0x20, 0x01, 0x80, 0x91, 0x7a, 0x00, 0x84, 0x60, 0x80, 0x93, 0x7a, 0x00, 0x80, 0x91, 0x7a, 0x00, 0x82, 0x60, 0x80, 0x93, 0x7a, 0x00, 0x80, 0x91, 0x7a, 0x00, 0x81, 0x60, 0x80, 0x93, 0x7a, 0x00, 0x80, 0x91, 0x7a, 0x00, 0x80, 0x68, 0x80, 0x93, 0x7a, 0x00, 0x10, 0x92, 0xc1, 0x00, 0xef, 0xea, 0xf1, 0xe0, 0x24, 0x91, 0xe9, 0xe6, 0xf1, 0xe0, 0x84, 0x91, 0x88, 0x23, 0x99, 0xf0, 0x90, 0xe0, 0x88, 0x0f, 0x99, 0x1f, 0xfc, 0x01, 0xe8, 0x5d, 0xfe, 0x4f, 0xa5, 0x91, 0xb4, 0x91, 0xfc, 0x01, 0xee, 0x5b, 0xfe, 0x4f, 0x85, 0x91, 0x94, 0x91, 0x8f, 0xb7, 0xf8, 0x94, 0xec, 0x91, 0xe2, 0x2b, 0xec, 0x93, 0x8f, 0xbf, 0xc0, 0xe0, 0xd0, 0xe0, 0x81, 0xe0, 0x0e, 0x94, 0x2d, 0x01, 0x0e, 0x94, 0xda, 0x01, 0x80, 0xe0, 0x0e, 0x94, 0x2d, 0x01, 0x0e, 0x94, 0xda, 0x01, 0x20, 0x97, 0xa1, 0xf3, 0x0e, 0x94, 0x00, 0x00, 0xf1, 0xcf, 0xee, 0x0f, 0xff, 0x1f, 0x88, 0x1f, 0x8b, 0xbf, 0x07, 0x90, 0xf6, 0x91, 0xe0, 0x2d, 0x19, 0x94, 0xf8, 0x94, 0xff, 0xcf
};

#define START_ADDR 0x0000

void write_flash(uint32_t page, uint8_t *data, size_t size) {
   3e124:	4f 92       	push	r4
   3e126:	5f 92       	push	r5
   3e128:	6f 92       	push	r6
   3e12a:	7f 92       	push	r7
   3e12c:	8f 92       	push	r8
   3e12e:	9f 92       	push	r9
   3e130:	af 92       	push	r10
   3e132:	bf 92       	push	r11
   3e134:	cf 92       	push	r12
   3e136:	df 92       	push	r13
   3e138:	ef 92       	push	r14
   3e13a:	ff 92       	push	r15
   3e13c:	0f 93       	push	r16
   3e13e:	1f 93       	push	r17
   3e140:	cf 93       	push	r28
   3e142:	df 93       	push	r29
	page = START_ADDR & ~(SPM_PAGESIZE - 1);
	
	for (uint16_t i = 0; i < ((size - 1) / SPM_PAGESIZE) + 1; i++) {
   3e144:	c0 e0       	ldi	r28, 0x00	; 0
   3e146:	d0 e0       	ldi	r29, 0x00	; 0
   3e148:	64 c0       	rjmp	.+200    	; 0x3e212 <write_flash+0xee>
		boot_page_erase(page + SPM_PAGESIZE * i);
   3e14a:	bc 2f       	mov	r27, r28
   3e14c:	aa 27       	eor	r26, r26
   3e14e:	6d 01       	movw	r12, r26
   3e150:	e1 2c       	mov	r14, r1
   3e152:	f1 2c       	mov	r15, r1
   3e154:	83 e0       	ldi	r24, 0x03	; 3
   3e156:	f6 01       	movw	r30, r12
   3e158:	e0 92 5b 00 	sts	0x005B, r14	; 0x80005b <__TEXT_REGION_LENGTH__+0x7c005b>
   3e15c:	80 93 57 00 	sts	0x0057, r24	; 0x800057 <__TEXT_REGION_LENGTH__+0x7c0057>
   3e160:	e8 95       	spm
		boot_spm_busy_wait();
   3e162:	07 b6       	in	r0, 0x37	; 55
   3e164:	00 fc       	sbrc	r0, 0
   3e166:	fd cf       	rjmp	.-6      	; 0x3e162 <write_flash+0x3e>
   3e168:	80 e0       	ldi	r24, 0x00	; 0
   3e16a:	90 e0       	ldi	r25, 0x00	; 0
   3e16c:	12 c0       	rjmp	.+36     	; 0x3e192 <write_flash+0x6e>
		
		for (uint16_t j = 0; j < SPM_PAGESIZE; j += 2)
		boot_page_fill(page + SPM_PAGESIZE * i + j, 0xFFFF);
   3e16e:	46 01       	movw	r8, r12
   3e170:	57 01       	movw	r10, r14
   3e172:	88 0e       	add	r8, r24
   3e174:	99 1e       	adc	r9, r25
   3e176:	a1 1c       	adc	r10, r1
   3e178:	b1 1c       	adc	r11, r1
   3e17a:	0f ef       	ldi	r16, 0xFF	; 255
   3e17c:	1f ef       	ldi	r17, 0xFF	; 255
   3e17e:	61 e0       	ldi	r22, 0x01	; 1
   3e180:	08 01       	movw	r0, r16
   3e182:	f4 01       	movw	r30, r8
   3e184:	a0 92 5b 00 	sts	0x005B, r10	; 0x80005b <__TEXT_REGION_LENGTH__+0x7c005b>
   3e188:	60 93 57 00 	sts	0x0057, r22	; 0x800057 <__TEXT_REGION_LENGTH__+0x7c0057>
   3e18c:	e8 95       	spm
   3e18e:	11 24       	eor	r1, r1
	
	for (uint16_t i = 0; i < ((size - 1) / SPM_PAGESIZE) + 1; i++) {
		boot_page_erase(page + SPM_PAGESIZE * i);
		boot_spm_busy_wait();
		
		for (uint16_t j = 0; j < SPM_PAGESIZE; j += 2)
   3e190:	02 96       	adiw	r24, 0x02	; 2
   3e192:	8f 3f       	cpi	r24, 0xFF	; 255
   3e194:	91 05       	cpc	r25, r1
   3e196:	59 f3       	breq	.-42     	; 0x3e16e <write_flash+0x4a>
   3e198:	50 f3       	brcs	.-44     	; 0x3e16e <write_flash+0x4a>
   3e19a:	80 e0       	ldi	r24, 0x00	; 0
   3e19c:	90 e0       	ldi	r25, 0x00	; 0
   3e19e:	2a c0       	rjmp	.+84     	; 0x3e1f4 <write_flash+0xd0>
		boot_page_fill(page + SPM_PAGESIZE * i + j, 0xFFFF);
		
		for (uint16_t j = 0; j < SPM_PAGESIZE; j += 2) {
			uint32_t curr_index = (SPM_PAGESIZE * i) + j;
   3e1a0:	bc 01       	movw	r22, r24
   3e1a2:	6a 0f       	add	r22, r26
   3e1a4:	7b 1f       	adc	r23, r27
   3e1a6:	2b 01       	movw	r4, r22
   3e1a8:	61 2c       	mov	r6, r1
   3e1aa:	71 2c       	mov	r7, r1
			
			uint16_t word;
			
			if (curr_index < size) {
   3e1ac:	49 01       	movw	r8, r18
   3e1ae:	a1 2c       	mov	r10, r1
   3e1b0:	b1 2c       	mov	r11, r1
   3e1b2:	48 14       	cp	r4, r8
   3e1b4:	59 04       	cpc	r5, r9
   3e1b6:	6a 04       	cpc	r6, r10
   3e1b8:	7b 04       	cpc	r7, r11
   3e1ba:	50 f4       	brcc	.+20     	; 0x3e1d0 <write_flash+0xac>
				word = data[curr_index] | (data[curr_index+1] << 8);
   3e1bc:	fa 01       	movw	r30, r20
   3e1be:	e6 0f       	add	r30, r22
   3e1c0:	f7 1f       	adc	r31, r23
   3e1c2:	10 81       	ld	r17, Z
   3e1c4:	61 81       	ldd	r22, Z+1	; 0x01
   3e1c6:	70 e0       	ldi	r23, 0x00	; 0
   3e1c8:	76 2f       	mov	r23, r22
   3e1ca:	66 27       	eor	r22, r22
   3e1cc:	61 2b       	or	r22, r17
   3e1ce:	02 c0       	rjmp	.+4      	; 0x3e1d4 <write_flash+0xb0>
				} else {
				word = 0xFFFF;
   3e1d0:	6f ef       	ldi	r22, 0xFF	; 255
   3e1d2:	7f ef       	ldi	r23, 0xFF	; 255
			}
			
			boot_page_fill(page + SPM_PAGESIZE * i + j, word);
   3e1d4:	46 01       	movw	r8, r12
   3e1d6:	57 01       	movw	r10, r14
   3e1d8:	88 0e       	add	r8, r24
   3e1da:	99 1e       	adc	r9, r25
   3e1dc:	a1 1c       	adc	r10, r1
   3e1de:	b1 1c       	adc	r11, r1
   3e1e0:	11 e0       	ldi	r17, 0x01	; 1
   3e1e2:	0b 01       	movw	r0, r22
   3e1e4:	f4 01       	movw	r30, r8
   3e1e6:	a0 92 5b 00 	sts	0x005B, r10	; 0x80005b <__TEXT_REGION_LENGTH__+0x7c005b>
   3e1ea:	10 93 57 00 	sts	0x0057, r17	; 0x800057 <__TEXT_REGION_LENGTH__+0x7c0057>
   3e1ee:	e8 95       	spm
   3e1f0:	11 24       	eor	r1, r1
		boot_spm_busy_wait();
		
		for (uint16_t j = 0; j < SPM_PAGESIZE; j += 2)
		boot_page_fill(page + SPM_PAGESIZE * i + j, 0xFFFF);
		
		for (uint16_t j = 0; j < SPM_PAGESIZE; j += 2) {
   3e1f2:	02 96       	adiw	r24, 0x02	; 2
   3e1f4:	8f 3f       	cpi	r24, 0xFF	; 255
   3e1f6:	91 05       	cpc	r25, r1
   3e1f8:	99 f2       	breq	.-90     	; 0x3e1a0 <write_flash+0x7c>
   3e1fa:	90 f2       	brcs	.-92     	; 0x3e1a0 <write_flash+0x7c>
			}
			
			boot_page_fill(page + SPM_PAGESIZE * i + j, word);
		}
		
		boot_page_write(page + SPM_PAGESIZE * i);
   3e1fc:	85 e0       	ldi	r24, 0x05	; 5
   3e1fe:	f6 01       	movw	r30, r12
   3e200:	e0 92 5b 00 	sts	0x005B, r14	; 0x80005b <__TEXT_REGION_LENGTH__+0x7c005b>
   3e204:	80 93 57 00 	sts	0x0057, r24	; 0x800057 <__TEXT_REGION_LENGTH__+0x7c0057>
   3e208:	e8 95       	spm
		boot_spm_busy_wait();
   3e20a:	07 b6       	in	r0, 0x37	; 55
   3e20c:	00 fc       	sbrc	r0, 0
   3e20e:	fd cf       	rjmp	.-6      	; 0x3e20a <write_flash+0xe6>
#define START_ADDR 0x0000

void write_flash(uint32_t page, uint8_t *data, size_t size) {
	page = START_ADDR & ~(SPM_PAGESIZE - 1);
	
	for (uint16_t i = 0; i < ((size - 1) / SPM_PAGESIZE) + 1; i++) {
   3e210:	21 96       	adiw	r28, 0x01	; 1
   3e212:	c9 01       	movw	r24, r18
   3e214:	01 97       	sbiw	r24, 0x01	; 1
   3e216:	89 2f       	mov	r24, r25
   3e218:	99 27       	eor	r25, r25
   3e21a:	01 96       	adiw	r24, 0x01	; 1
   3e21c:	c8 17       	cp	r28, r24
   3e21e:	d9 07       	cpc	r29, r25
   3e220:	08 f4       	brcc	.+2      	; 0x3e224 <write_flash+0x100>
   3e222:	93 cf       	rjmp	.-218    	; 0x3e14a <write_flash+0x26>
		
		boot_page_write(page + SPM_PAGESIZE * i);
		boot_spm_busy_wait();
	}
	
	boot_rww_enable();
   3e224:	81 e1       	ldi	r24, 0x11	; 17
   3e226:	80 93 57 00 	sts	0x0057, r24	; 0x800057 <__TEXT_REGION_LENGTH__+0x7c0057>
   3e22a:	e8 95       	spm
}
   3e22c:	df 91       	pop	r29
   3e22e:	cf 91       	pop	r28
   3e230:	1f 91       	pop	r17
   3e232:	0f 91       	pop	r16
   3e234:	ff 90       	pop	r15
   3e236:	ef 90       	pop	r14
   3e238:	df 90       	pop	r13
   3e23a:	cf 90       	pop	r12
   3e23c:	bf 90       	pop	r11
   3e23e:	af 90       	pop	r10
   3e240:	9f 90       	pop	r9
   3e242:	8f 90       	pop	r8
   3e244:	7f 90       	pop	r7
   3e246:	6f 90       	pop	r6
   3e248:	5f 90       	pop	r5
   3e24a:	4f 90       	pop	r4
   3e24c:	08 95       	ret

0003e24e <main>:

int main(void)
{
   3e24e:	cf 93       	push	r28
   3e250:	df 93       	push	r29
   3e252:	cd b7       	in	r28, 0x3d	; 61
   3e254:	de b7       	in	r29, 0x3e	; 62
   3e256:	da 95       	dec	r29
   3e258:	0f b6       	in	r0, 0x3f	; 63
   3e25a:	f8 94       	cli
   3e25c:	de bf       	out	0x3e, r29	; 62
   3e25e:	0f be       	out	0x3f, r0	; 63
   3e260:	cd bf       	out	0x3d, r28	; 61
	SPI_init();
   3e262:	45 d0       	rcall	.+138    	; 0x3e2ee <SPI_init>
	//W25QXX_write_app(data, 1536);
	//W25QXX_write_remainder(0x00);
	
	// read first page
	
	DDRB = 0xFF;
   3e264:	8f ef       	ldi	r24, 0xFF	; 255
   3e266:	84 b9       	out	0x04, r24	; 4
	for (int i = 0; i < 2; i++) {
   3e268:	80 e0       	ldi	r24, 0x00	; 0
   3e26a:	90 e0       	ldi	r25, 0x00	; 0
   3e26c:	0d c0       	rjmp	.+26     	; 0x3e288 <main+0x3a>
		PORTB ^= (1 << PB7);
   3e26e:	25 b1       	in	r18, 0x05	; 5
   3e270:	20 58       	subi	r18, 0x80	; 128
   3e272:	25 b9       	out	0x05, r18	; 5
	#else
		//round up by default
		__ticks_dc = (uint32_t)(ceil(fabs(__tmp)));
	#endif

	__builtin_avr_delay_cycles(__ticks_dc);
   3e274:	2f ef       	ldi	r18, 0xFF	; 255
   3e276:	39 e6       	ldi	r19, 0x69	; 105
   3e278:	48 e1       	ldi	r20, 0x18	; 24
   3e27a:	21 50       	subi	r18, 0x01	; 1
   3e27c:	30 40       	sbci	r19, 0x00	; 0
   3e27e:	40 40       	sbci	r20, 0x00	; 0
   3e280:	e1 f7       	brne	.-8      	; 0x3e27a <main+0x2c>
   3e282:	00 c0       	rjmp	.+0      	; 0x3e284 <main+0x36>
   3e284:	00 00       	nop
	//W25QXX_write_remainder(0x00);
	
	// read first page
	
	DDRB = 0xFF;
	for (int i = 0; i < 2; i++) {
   3e286:	01 96       	adiw	r24, 0x01	; 1
   3e288:	82 30       	cpi	r24, 0x02	; 2
   3e28a:	91 05       	cpc	r25, r1
   3e28c:	84 f3       	brlt	.-32     	; 0x3e26e <main+0x20>
		PORTB ^= (1 << PB7);
		_delay_ms(500);
	}
	
	uint8_t buf[256] = {0x67};
   3e28e:	8e 01       	movw	r16, r28
   3e290:	0f 5f       	subi	r16, 0xFF	; 255
   3e292:	1f 4f       	sbci	r17, 0xFF	; 255
   3e294:	80 e0       	ldi	r24, 0x00	; 0
   3e296:	91 e0       	ldi	r25, 0x01	; 1
   3e298:	f8 01       	movw	r30, r16
   3e29a:	9c 01       	movw	r18, r24
   3e29c:	11 92       	st	Z+, r1
   3e29e:	21 50       	subi	r18, 0x01	; 1
   3e2a0:	30 40       	sbci	r19, 0x00	; 0
   3e2a2:	e1 f7       	brne	.-8      	; 0x3e29c <main+0x4e>
   3e2a4:	87 e6       	ldi	r24, 0x67	; 103
   3e2a6:	89 83       	std	Y+1, r24	; 0x01
	
	W25QXX_read_stream(0x00000000, buf, 256);
   3e2a8:	20 e0       	ldi	r18, 0x00	; 0
   3e2aa:	31 e0       	ldi	r19, 0x01	; 1
   3e2ac:	a8 01       	movw	r20, r16
   3e2ae:	60 e0       	ldi	r22, 0x00	; 0
   3e2b0:	70 e0       	ldi	r23, 0x00	; 0
   3e2b2:	cb 01       	movw	r24, r22
   3e2b4:	43 d0       	rcall	.+134    	; 0x3e33c <W25QXX_read_stream>
	
	cli(); // always remember to disable interrupts when writing to flash
   3e2b6:	f8 94       	cli
	write_flash(START_ADDR, buf, 256);
   3e2b8:	20 e0       	ldi	r18, 0x00	; 0
   3e2ba:	31 e0       	ldi	r19, 0x01	; 1
   3e2bc:	a8 01       	movw	r20, r16
   3e2be:	60 e0       	ldi	r22, 0x00	; 0
   3e2c0:	70 e0       	ldi	r23, 0x00	; 0
   3e2c2:	cb 01       	movw	r24, r22
   3e2c4:	2f df       	rcall	.-418    	; 0x3e124 <write_flash>
	
	//asm("JMP 0x0");
	
	for (int i = 0; i < 10; i++) {
   3e2c6:	80 e0       	ldi	r24, 0x00	; 0
   3e2c8:	90 e0       	ldi	r25, 0x00	; 0
   3e2ca:	0d c0       	rjmp	.+26     	; 0x3e2e6 <main+0x98>
		PORTB ^= (1 << PB7);
   3e2cc:	25 b1       	in	r18, 0x05	; 5
   3e2ce:	20 58       	subi	r18, 0x80	; 128
   3e2d0:	25 b9       	out	0x05, r18	; 5
   3e2d2:	3f ef       	ldi	r19, 0xFF	; 255
   3e2d4:	49 e6       	ldi	r20, 0x69	; 105
   3e2d6:	e8 e1       	ldi	r30, 0x18	; 24
   3e2d8:	31 50       	subi	r19, 0x01	; 1
   3e2da:	40 40       	sbci	r20, 0x00	; 0
   3e2dc:	e0 40       	sbci	r30, 0x00	; 0
   3e2de:	e1 f7       	brne	.-8      	; 0x3e2d8 <main+0x8a>
   3e2e0:	00 c0       	rjmp	.+0      	; 0x3e2e2 <main+0x94>
   3e2e2:	00 00       	nop
	cli(); // always remember to disable interrupts when writing to flash
	write_flash(START_ADDR, buf, 256);
	
	//asm("JMP 0x0");
	
	for (int i = 0; i < 10; i++) {
   3e2e4:	01 96       	adiw	r24, 0x01	; 1
   3e2e6:	8a 30       	cpi	r24, 0x0A	; 10
   3e2e8:	91 05       	cpc	r25, r1
   3e2ea:	84 f3       	brlt	.-32     	; 0x3e2cc <main+0x7e>
   3e2ec:	ff cf       	rjmp	.-2      	; 0x3e2ec <main+0x9e>

0003e2ee <SPI_init>:
 */ 

#include "spi.h"

void SPI_init(void) {
	DDR_SPI = (1<<SCK) | (1<<MOSI) | (1<<SS); // set relevant pins to output, set SS to output to enter master mode
   3e2ee:	87 e0       	ldi	r24, 0x07	; 7
   3e2f0:	84 b9       	out	0x04, r24	; 4
	DDR_SS = (1<<SS_W25Qxx) | (1<<SS_BMP390);
   3e2f2:	88 e1       	ldi	r24, 0x18	; 24
   3e2f4:	81 b9       	out	0x01, r24	; 1
	SPCR = (1<<SPE) | (1<<MSTR) | (1<<SPR0); // enable spi, set as master, use mode 0, set sck = f/16
   3e2f6:	81 e5       	ldi	r24, 0x51	; 81
   3e2f8:	8c bd       	out	0x2c, r24	; 44
	PORT_SS |= (1<<SS_W25Qxx) | (1<<SS_BMP390); // add when more slaves added
   3e2fa:	82 b1       	in	r24, 0x02	; 2
   3e2fc:	88 61       	ori	r24, 0x18	; 24
   3e2fe:	82 b9       	out	0x02, r24	; 2
   3e300:	08 95       	ret

0003e302 <SPI_select>:
}

void SPI_select(uint8_t addr) {
	PORT_SS &= ~(1<<addr);
   3e302:	92 b1       	in	r25, 0x02	; 2
   3e304:	21 e0       	ldi	r18, 0x01	; 1
   3e306:	30 e0       	ldi	r19, 0x00	; 0
   3e308:	02 c0       	rjmp	.+4      	; 0x3e30e <SPI_select+0xc>
   3e30a:	22 0f       	add	r18, r18
   3e30c:	33 1f       	adc	r19, r19
   3e30e:	8a 95       	dec	r24
   3e310:	e2 f7       	brpl	.-8      	; 0x3e30a <SPI_select+0x8>
   3e312:	20 95       	com	r18
   3e314:	29 23       	and	r18, r25
   3e316:	22 b9       	out	0x02, r18	; 2
   3e318:	08 95       	ret

0003e31a <SPI_deselect>:
}

void SPI_deselect(uint8_t addr) {
	PORT_SS |= (1<<addr);
   3e31a:	92 b1       	in	r25, 0x02	; 2
   3e31c:	21 e0       	ldi	r18, 0x01	; 1
   3e31e:	30 e0       	ldi	r19, 0x00	; 0
   3e320:	02 c0       	rjmp	.+4      	; 0x3e326 <SPI_deselect+0xc>
   3e322:	22 0f       	add	r18, r18
   3e324:	33 1f       	adc	r19, r19
   3e326:	8a 95       	dec	r24
   3e328:	e2 f7       	brpl	.-8      	; 0x3e322 <SPI_deselect+0x8>
   3e32a:	29 2b       	or	r18, r25
   3e32c:	22 b9       	out	0x02, r18	; 2
   3e32e:	08 95       	ret

0003e330 <SPI_transaction>:
}

uint8_t SPI_transaction(uint8_t data) {
	SPDR = data;
   3e330:	8e bd       	out	0x2e, r24	; 46
	while (!(SPSR & (1<<SPIF))); // wait until SPIF is 1
   3e332:	0d b4       	in	r0, 0x2d	; 45
   3e334:	07 fe       	sbrs	r0, 7
   3e336:	fd cf       	rjmp	.-6      	; 0x3e332 <SPI_transaction+0x2>
	return SPDR;
   3e338:	8e b5       	in	r24, 0x2e	; 46
   3e33a:	08 95       	ret

0003e33c <W25QXX_read_stream>:
	uint8_t data = SPI_transaction(0x00);
	SPI_deselect(SS_W25Qxx);
	return data;
}

void W25QXX_read_stream(uint32_t addr, uint8_t *buf, size_t len) {
   3e33c:	cf 92       	push	r12
   3e33e:	df 92       	push	r13
   3e340:	ef 92       	push	r14
   3e342:	ff 92       	push	r15
   3e344:	0f 93       	push	r16
   3e346:	1f 93       	push	r17
   3e348:	cf 93       	push	r28
   3e34a:	df 93       	push	r29
   3e34c:	c6 2f       	mov	r28, r22
   3e34e:	d7 2f       	mov	r29, r23
   3e350:	18 2f       	mov	r17, r24
   3e352:	6a 01       	movw	r12, r20
   3e354:	79 01       	movw	r14, r18
	SPI_select(SS_W25Qxx);
   3e356:	83 e0       	ldi	r24, 0x03	; 3
   3e358:	d4 df       	rcall	.-88     	; 0x3e302 <SPI_select>
	SPI_transaction(0x03);
   3e35a:	83 e0       	ldi	r24, 0x03	; 3
   3e35c:	e9 df       	rcall	.-46     	; 0x3e330 <SPI_transaction>
	SPI_transaction((addr>>16) & 0xFF);
   3e35e:	81 2f       	mov	r24, r17
   3e360:	e7 df       	rcall	.-50     	; 0x3e330 <SPI_transaction>
	SPI_transaction((addr>>8) & 0xFF);
   3e362:	8d 2f       	mov	r24, r29
   3e364:	e5 df       	rcall	.-54     	; 0x3e330 <SPI_transaction>
	SPI_transaction((addr) & 0xFF);
   3e366:	8c 2f       	mov	r24, r28
   3e368:	e3 df       	rcall	.-58     	; 0x3e330 <SPI_transaction>
   3e36a:	c0 e0       	ldi	r28, 0x00	; 0
	
	for (size_t i = 0; i < len; i++) {
   3e36c:	d0 e0       	ldi	r29, 0x00	; 0
   3e36e:	08 c0       	rjmp	.+16     	; 0x3e380 <W25QXX_read_stream+0x44>
		buf[i] = SPI_transaction(0x00);
   3e370:	86 01       	movw	r16, r12
   3e372:	0c 0f       	add	r16, r28
   3e374:	1d 1f       	adc	r17, r29
   3e376:	80 e0       	ldi	r24, 0x00	; 0
   3e378:	db df       	rcall	.-74     	; 0x3e330 <SPI_transaction>
   3e37a:	f8 01       	movw	r30, r16
   3e37c:	80 83       	st	Z, r24
	SPI_transaction(0x03);
	SPI_transaction((addr>>16) & 0xFF);
	SPI_transaction((addr>>8) & 0xFF);
	SPI_transaction((addr) & 0xFF);
	
	for (size_t i = 0; i < len; i++) {
   3e37e:	21 96       	adiw	r28, 0x01	; 1
   3e380:	ce 15       	cp	r28, r14
   3e382:	df 05       	cpc	r29, r15
   3e384:	a8 f3       	brcs	.-22     	; 0x3e370 <W25QXX_read_stream+0x34>
		buf[i] = SPI_transaction(0x00);
	}
	
	SPI_deselect(SS_W25Qxx);
   3e386:	83 e0       	ldi	r24, 0x03	; 3
   3e388:	c8 df       	rcall	.-112    	; 0x3e31a <SPI_deselect>
   3e38a:	df 91       	pop	r29
}
   3e38c:	cf 91       	pop	r28
   3e38e:	1f 91       	pop	r17
   3e390:	0f 91       	pop	r16
   3e392:	ff 90       	pop	r15
   3e394:	ef 90       	pop	r14
   3e396:	df 90       	pop	r13
   3e398:	cf 90       	pop	r12
   3e39a:	08 95       	ret

0003e39c <_exit>:
   3e39c:	f8 94       	cli

0003e39e <__stop_program>:
   3e39e:	ff cf       	rjmp	.-2      	; 0x3e39e <__stop_program>
